; Function Attrs: mustprogress nounwind uwtable
define dso_local void @_ZN4node7tracing19InternalTraceBufferC2EmjPNS0_5AgentE(ptr noundef nonnull align 8 dereferenceable(104) %this, i64 noundef %max_chunks, i32 noundef %id, ptr noundef %agent) unnamed_addr #0 align 2 {
entry:
  %call.i.i = tail call noundef i32 @uv_mutex_init(ptr noundef nonnull %this) #13
  %cmp.not.i = icmp eq i32 %call.i.i, 0
  br i1 %cmp.not.i, label %_ZN4node9MutexBaseINS_16LibuvMutexTraitsEEC2Ev.exit, label %do.body5.i

do.body5.i:                                       ; preds = %entry
  tail call void @_ZN4node6AssertERKNS_13AssertionInfoE(ptr noundef nonnull align 8 dereferenceable(24) @_ZZN4node9MutexBaseINS_16LibuvMutexTraitsEEC1EvE4args) #13
  tail call void @abort() #14
  unreachable

_ZN4node9MutexBaseINS_16LibuvMutexTraitsEEC2Ev.exit: ; preds = %entry
  %flushing_ = getelementptr inbounds i8, ptr %this, i64 40
  store i8 0, ptr %flushing_, align 8
  %max_chunks_ = getelementptr inbounds i8, ptr %this, i64 48
  store i64 %max_chunks, ptr %max_chunks_, align 8
  %agent_ = getelementptr inbounds i8, ptr %this, i64 56
  store ptr %agent, ptr %agent_, align 8
  %chunks_ = getelementptr inbounds i8, ptr %this, i64 64
  %current_chunk_seq_ = getelementptr inbounds i8, ptr %this, i64 96
  tail call void @llvm.memset.p0.i64(ptr noundef nonnull align 8 dereferenceable(32) %chunks_, i8 0, i64 32, i1 false)
  store i32 1, ptr %current_chunk_seq_, align 8
  %id_ = getelementptr inbounds i8, ptr %this, i64 100
  store i32 %id, ptr %id_, align 4
  tail call void @_ZNSt6vectorISt10unique_ptrIN2v88platform7tracing16TraceBufferChunkESt14default_deleteIS4_EESaIS7_EE6resizeEm(ptr noundef nonnull align 8 dereferenceable(24) %chunks_, i64 noundef %max_chunks)
  ret void
}